target datalayout = "e-m:e-p270:32:32-p271:32:32-p272:64:64-i64:64-i128:128-f80:128-n8:16:32:64-S128"
target triple = "x86_64-pc-linux-gnu"

; Function Attrs: nounwind uwtable
define i32 @pmix_fd_set_cloexec(i32 noundef %0) #0 {
  %2 = alloca i32, align 4
  %3 = alloca i32, align 4
  %4 = alloca i32, align 4
  %5 = alloca i32, align 4
  store i32 %0, ptr %3, align 4, !tbaa !3
  call void @llvm.lifetime.start.p0(i64 4, ptr %4) #6
  %6 = load i32, ptr %3, align 4, !tbaa !3
  %7 = call i32 (i32, i32, ...) @fcntl(i32 noundef %6, i32 noundef 1, i32 noundef 0)
  store i32 %7, ptr %4, align 4, !tbaa !3
  %8 = load i32, ptr %4, align 4, !tbaa !3
  %9 = icmp eq i32 -1, %8
  br i1 %9, label %10, label %11

10:                                               ; preds = %1
  store i32 -26, ptr %2, align 4
  store i32 1, ptr %5, align 4
  br label %19

11:                                               ; preds = %1
  %12 = load i32, ptr %3, align 4, !tbaa !3
  %13 = load i32, ptr %4, align 4, !tbaa !3
  %14 = or i32 1, %13
  %15 = call i32 (i32, i32, ...) @fcntl(i32 noundef %12, i32 noundef 2, i32 noundef %14)
  %16 = icmp eq i32 %15, -1
  br i1 %16, label %17, label %18

17:                                               ; preds = %11
  store i32 -26, ptr %2, align 4
  store i32 1, ptr %5, align 4
  br label %19

18:                                               ; preds = %11
  store i32 0, ptr %2, align 4
  store i32 1, ptr %5, align 4
  br label %19

19:                                               ; preds = %18, %17, %10
  call void @llvm.lifetime.end.p0(i64 4, ptr %4) #6
  %20 = load i32, ptr %2, align 4
  ret i32 %20
}