; Function Attrs: nounwind uwtable
define range(i32 -26, 1) i32 @pmix_fd_set_cloexec(i32 noundef %0) local_unnamed_addr #4 {
  %2 = tail call i32 (i32, i32, ...) @fcntl(i32 noundef %0, i32 noundef 1, i32 noundef 0) #10
  %3 = icmp eq i32 %2, -1
  br i1 %3, label %8, label %4

4:                                                ; preds = %1
  %5 = or i32 %2, 1
  %6 = tail call i32 (i32, i32, ...) @fcntl(i32 noundef %0, i32 noundef 2, i32 noundef %5) #10
  %7 = icmp eq i32 %6, -1
  %. = select i1 %7, i32 -26, i32 0
  br label %8

8:                                                ; preds = %4, %1
  %.0 = phi i32 [ -26, %1 ], [ %., %4 ]
  ret i32 %.0
}